; Function Attrs: mustprogress uwtable
define ptr @qt_plugin_instance() local_unnamed_addr #2 personality ptr @__gxx_personality_v0 {
  %1 = load atomic i8, ptr @_ZGVZ18qt_plugin_instanceE9_instance acquire, align 8
  %2 = icmp eq i8 %1, 0
  br i1 %2, label %3, label %7, !prof !20

3:                                                ; preds = %0
  %4 = tail call i32 @__cxa_guard_acquire(ptr nonnull @_ZGVZ18qt_plugin_instanceE9_instance) #21
  %.not = icmp eq i32 %4, 0
  br i1 %.not, label %7, label %5

5:                                                ; preds = %3
  tail call void @llvm.memset.p0.i64(ptr noundef nonnull align 8 dereferenceable(16) @_ZZ18qt_plugin_instanceE9_instance, i8 0, i64 16, i1 false)
  %6 = tail call i32 @__cxa_atexit(ptr nonnull @_ZN8QPointerI7QObjectED2Ev, ptr nonnull @_ZZ18qt_plugin_instanceE9_instance, ptr nonnull @__dso_handle) #21
  tail call void @__cxa_guard_release(ptr nonnull @_ZGVZ18qt_plugin_instanceE9_instance) #21
  br label %7

7:                                                ; preds = %5, %3, %0
  %8 = load ptr, ptr @_ZZ18qt_plugin_instanceE9_instance, align 8
  %9 = icmp eq ptr %8, null
  br i1 %9, label %_ZNK8QPointerI7QObjectEcvPS0_Ev.exit.thread, label %10

10:                                               ; preds = %7
  %11 = getelementptr inbounds i8, ptr %8, i64 4
  %12 = load atomic i32, ptr %11 monotonic, align 4
  %13 = icmp eq i32 %12, 0
  %14 = load ptr, ptr getelementptr inbounds (%class.QPointer, ptr @_ZZ18qt_plugin_instanceE9_instance, i64 0, i32 0, i32 1), align 8
  %.not1 = icmp eq ptr %14, null
  %or.cond = select i1 %13, i1 true, i1 %.not1
  br i1 %or.cond, label %_ZNK8QPointerI7QObjectEcvPS0_Ev.exit.thread, label %_ZN8QPointerI7QObjectEaSEPS0_.exitthread-pre-split

_ZNK8QPointerI7QObjectEcvPS0_Ev.exit.thread:      ; preds = %7, %10
  %15 = tail call noalias noundef nonnull dereferenceable(120) ptr @_Znwm(i64 noundef 120) #20
  invoke void @_ZN12FilterCreateC1Ev(ptr noundef nonnull align 8 dereferenceable(80) %15)
          to label %16 unwind label %22

16:                                               ; preds = %_ZNK8QPointerI7QObjectEcvPS0_Ev.exit.thread
  %17 = tail call noundef ptr @_ZN15QtSharedPointer20ExternalRefCountData9getAndRefEPK7QObject(ptr noundef nonnull %15)
  %18 = load ptr, ptr @_ZZ18qt_plugin_instanceE9_instance, align 8
  store ptr %17, ptr @_ZZ18qt_plugin_instanceE9_instance, align 8
  store ptr %15, ptr getelementptr inbounds (%class.QPointer, ptr @_ZZ18qt_plugin_instanceE9_instance, i64 0, i32 0, i32 1), align 8
  %.not.i.i.i.i = icmp eq ptr %18, null
  br i1 %.not.i.i.i.i, label %_ZN8QPointerI7QObjectEaSEPS0_.exit, label %19

19:                                               ; preds = %16
  %20 = atomicrmw sub ptr %18, i32 1 seq_cst, align 4
  %.not2.i.i.i.i = icmp eq i32 %20, 1
  br i1 %.not2.i.i.i.i, label %21, label %_ZN8QPointerI7QObjectEaSEPS0_.exitthread-pre-split

21:                                               ; preds = %19
  tail call void @_ZdlPv(ptr noundef nonnull %18) #21
  br label %_ZN8QPointerI7QObjectEaSEPS0_.exitthread-pre-split

22:                                               ; preds = %_ZNK8QPointerI7QObjectEcvPS0_Ev.exit.thread
  %23 = landingpad { ptr, i32 }
          cleanup
  tail call void @_ZdlPv(ptr noundef nonnull %15) #22
  resume { ptr, i32 } %23

_ZN8QPointerI7QObjectEaSEPS0_.exitthread-pre-split: ; preds = %10, %19, %21
  %.pr = load ptr, ptr @_ZZ18qt_plugin_instanceE9_instance, align 8
  br label %_ZN8QPointerI7QObjectEaSEPS0_.exit

_ZN8QPointerI7QObjectEaSEPS0_.exit:               ; preds = %_ZN8QPointerI7QObjectEaSEPS0_.exitthread-pre-split, %16
  %24 = phi ptr [ %.pr, %_ZN8QPointerI7QObjectEaSEPS0_.exitthread-pre-split ], [ %17, %16 ]
  %25 = icmp eq ptr %24, null
  br i1 %25, label %_ZNK8QPointerI7QObjectEcvPS0_Ev.exit2, label %26

26:                                               ; preds = %_ZN8QPointerI7QObjectEaSEPS0_.exit
  %27 = getelementptr inbounds i8, ptr %24, i64 4
  %28 = load atomic i32, ptr %27 monotonic, align 4
  %29 = icmp eq i32 %28, 0
  %30 = load ptr, ptr getelementptr inbounds (%class.QPointer, ptr @_ZZ18qt_plugin_instanceE9_instance, i64 0, i32 0, i32 1), align 8
  %spec.select = select i1 %29, ptr null, ptr %30
  br label %_ZNK8QPointerI7QObjectEcvPS0_Ev.exit2

_ZNK8QPointerI7QObjectEcvPS0_Ev.exit2:            ; preds = %26, %_ZN8QPointerI7QObjectEaSEPS0_.exit
  %31 = phi ptr [ null, %_ZN8QPointerI7QObjectEaSEPS0_.exit ], [ %spec.select, %26 ]
  ret ptr %31
}